target datalayout = "e-m:e-p270:32:32-p271:32:32-p272:64:64-i64:64-i128:128-f80:128-n8:16:32:64-S128"
target triple = "x86_64-pc-linux-gnu"

%struct.GlobalConfig = type { i8, i8, i8, i8, i8, ptr, ptr, i8, i32, i8, i8, i32, ptr, i8, i8, i64, ptr, i8, i16, i8, ptr, ptr, ptr, ptr, ptr }

@.str.8 = private unnamed_addr constant [22 x i8] c"CURLOPT_DEBUGFUNCTION\00", align 1
@.str.9 = private unnamed_addr constant [18 x i8] c"CURLOPT_DEBUGDATA\00", align 1
@.str.10 = private unnamed_addr constant [16 x i8] c"CURLOPT_VERBOSE\00", align 1

; Function Attrs: nounwind uwtable
define internal i32 @tool_ssls_easy(ptr noundef %0, ptr noundef %1, ptr noundef %2, ptr noundef %3) #0 {
  %5 = alloca i32, align 4
  %6 = alloca ptr, align 8
  %7 = alloca ptr, align 8
  %8 = alloca ptr, align 8
  %9 = alloca ptr, align 8
  %10 = alloca i32, align 4
  %11 = alloca i32, align 4
  store ptr %0, ptr %6, align 8, !tbaa !4
  store ptr %1, ptr %7, align 8, !tbaa !9
  store ptr %2, ptr %8, align 8, !tbaa !11
  store ptr %3, ptr %9, align 8, !tbaa !11
  call void @llvm.lifetime.start.p0(i64 4, ptr %10) #4
  store i32 0, ptr %10, align 4, !tbaa !14
  %12 = call ptr @curl_easy_init()
  %13 = load ptr, ptr %9, align 8, !tbaa !11
  store ptr %12, ptr %13, align 8, !tbaa !11
  %14 = load ptr, ptr %9, align 8, !tbaa !11
  %15 = load ptr, ptr %14, align 8, !tbaa !11
  %16 = icmp ne ptr %15, null
  br i1 %16, label %18, label %17

17:                                               ; preds = %4
  store i32 27, ptr %5, align 4
  store i32 1, ptr %11, align 4
  br label %58

18:                                               ; preds = %4
  %19 = load ptr, ptr %9, align 8, !tbaa !11
  %20 = load ptr, ptr %19, align 8, !tbaa !11
  %21 = load ptr, ptr %8, align 8, !tbaa !11
  %22 = call i32 (ptr, i32, ...) @curl_easy_setopt(ptr noundef %20, i32 noundef 10100, ptr noundef %21)
  store i32 %22, ptr %10, align 4, !tbaa !14
  %23 = load i32, ptr %10, align 4, !tbaa !14
  %24 = icmp ne i32 %23, 0
  br i1 %24, label %56, label %25

25:                                               ; preds = %18
  %26 = load ptr, ptr %6, align 8, !tbaa !4
  %27 = getelementptr inbounds nuw %struct.GlobalConfig, ptr %26, i32 0, i32 8
  %28 = load i32, ptr %27, align 4, !tbaa !25
  %29 = icmp ne i32 %28, 0
  br i1 %29, label %30, label %56

30:                                               ; preds = %25
  br label %31

31:                                               ; preds = %30
  %32 = load ptr, ptr %9, align 8, !tbaa !11
  %33 = load ptr, ptr %32, align 8, !tbaa !11
  %34 = load ptr, ptr %6, align 8, !tbaa !4
  %35 = load ptr, ptr %7, align 8, !tbaa !9
  %36 = call i32 (ptr, i1, ptr, ptr, ptr, i32, ...) @tool_setopt(ptr noundef %33, i1 noundef zeroext false, ptr noundef %34, ptr noundef %35, ptr noundef @.str.8, i32 noundef 20094, ptr noundef @tool_debug_cb)
  store i32 %36, ptr %10, align 4, !tbaa !14
  br label %37

37:                                               ; preds = %31
  br label %38

38:                                               ; preds = %37
  br label %39

39:                                               ; preds = %38
  %40 = load ptr, ptr %9, align 8, !tbaa !11
  %41 = load ptr, ptr %40, align 8, !tbaa !11
  %42 = load ptr, ptr %6, align 8, !tbaa !4
  %43 = load ptr, ptr %7, align 8, !tbaa !9
  %44 = load ptr, ptr %7, align 8, !tbaa !9
  %45 = call i32 (ptr, i1, ptr, ptr, ptr, i32, ...) @tool_setopt(ptr noundef %41, i1 noundef zeroext false, ptr noundef %42, ptr noundef %43, ptr noundef @.str.9, i32 noundef 10095, ptr noundef %44)
  store i32 %45, ptr %10, align 4, !tbaa !14
  br label %46

46:                                               ; preds = %39
  br label %47

47:                                               ; preds = %46
  br label %48

48:                                               ; preds = %47
  %49 = load ptr, ptr %9, align 8, !tbaa !11
  %50 = load ptr, ptr %49, align 8, !tbaa !11
  %51 = load ptr, ptr %6, align 8, !tbaa !4
  %52 = load ptr, ptr %7, align 8, !tbaa !9
  %53 = call i32 (ptr, i1, ptr, ptr, ptr, i32, ...) @tool_setopt(ptr noundef %50, i1 noundef zeroext false, ptr noundef %51, ptr noundef %52, ptr noundef @.str.10, i32 noundef 41, i64 noundef 1)
  store i32 %53, ptr %10, align 4, !tbaa !14
  br label %54

54:                                               ; preds = %48
  br label %55

55:                                               ; preds = %54
  br label %56

56:                                               ; preds = %55, %25, %18
  %57 = load i32, ptr %10, align 4, !tbaa !14
  store i32 %57, ptr %5, align 4
  store i32 1, ptr %11, align 4
  br label %58

58:                                               ; preds = %56, %17
  call void @llvm.lifetime.end.p0(i64 4, ptr %10) #4
  %59 = load i32, ptr %5, align 4
  ret i32 %59
}