; Function Attrs: nounwind uwtable
define internal fastcc i32 @tool_ssls_easy(ptr noundef %0, ptr noundef %1, ptr noundef %2, ptr noundef nonnull captures(none) initializes((0, 8)) %3) unnamed_addr #0 {
  %5 = tail call ptr @curl_easy_init() #5
  store ptr %5, ptr %3, align 8, !tbaa !9
  %.not = icmp eq ptr %5, null
  br i1 %.not, label %18, label %6

6:                                                ; preds = %4
  %7 = tail call i32 (ptr, i32, ...) @curl_easy_setopt(ptr noundef nonnull %5, i32 noundef 10100, ptr noundef %2) #5
  %.not20 = icmp eq i32 %7, 0
  br i1 %.not20, label %8, label %18

8:                                                ; preds = %6
  %9 = getelementptr inbounds nuw i8, ptr %0, i64 28
  %10 = load i32, ptr %9, align 4, !tbaa !17
  %.not21 = icmp eq i32 %10, 0
  br i1 %.not21, label %18, label %11

11:                                               ; preds = %8
  %12 = load ptr, ptr %3, align 8, !tbaa !9
  %13 = tail call i32 (ptr, i1, ptr, ptr, ptr, i32, ...) @tool_setopt(ptr noundef %12, i1 noundef zeroext false, ptr noundef nonnull %0, ptr noundef %1, ptr noundef nonnull @.str.8, i32 noundef 20094, ptr noundef nonnull @tool_debug_cb) #5
  %14 = load ptr, ptr %3, align 8, !tbaa !9
  %15 = tail call i32 (ptr, i1, ptr, ptr, ptr, i32, ...) @tool_setopt(ptr noundef %14, i1 noundef zeroext false, ptr noundef nonnull %0, ptr noundef %1, ptr noundef nonnull @.str.9, i32 noundef 10095, ptr noundef %1) #5
  %16 = load ptr, ptr %3, align 8, !tbaa !9
  %17 = tail call i32 (ptr, i1, ptr, ptr, ptr, i32, ...) @tool_setopt(ptr noundef %16, i1 noundef zeroext false, ptr noundef nonnull %0, ptr noundef %1, ptr noundef nonnull @.str.10, i32 noundef 41, i64 noundef 1) #5
  br label %18

18:                                               ; preds = %6, %8, %11, %4
  %.017 = phi i32 [ 27, %4 ], [ %7, %6 ], [ %17, %11 ], [ 0, %8 ]
  ret i32 %.017
}